; Function Attrs: mustprogress nofree norecurse nosync nounwind willreturn memory(read, inaccessiblemem: none) uwtable
define noundef i64 @_ZN6casadi13BSplineCommon14get_coeff_sizeExRKSt6vectorIxSaIxEES5_(i64 noundef %0, ptr nocapture noundef nonnull readonly align 8 dereferenceable(24) %1, ptr nocapture noundef nonnull readonly align 8 dereferenceable(24) %2) local_unnamed_addr #8 align 2 {
  %4 = getelementptr inbounds i8, ptr %2, i64 8
  %5 = load ptr, ptr %4, align 8
  %6 = load ptr, ptr %2, align 8
  %.not = icmp eq ptr %5, %6
  br i1 %.not, label %._crit_edge, label %.lr.ph

.lr.ph:                                           ; preds = %3
  %7 = ptrtoint ptr %5 to i64
  %8 = ptrtoint ptr %6 to i64
  %9 = sub i64 %7, %8
  %10 = ashr exact i64 %9, 3
  %11 = load ptr, ptr %1, align 8
  %umax = tail call i64 @llvm.umax.i64(i64 %10, i64 1)
  %.pre = load i64, ptr %11, align 8
  br label %12

12:                                               ; preds = %.lr.ph, %12
  %13 = phi i64 [ %.pre, %.lr.ph ], [ %16, %12 ]
  %.013 = phi i64 [ 0, %.lr.ph ], [ %14, %12 ]
  %.01112 = phi i64 [ %0, %.lr.ph ], [ %22, %12 ]
  %14 = add nuw nsw i64 %.013, 1
  %15 = getelementptr inbounds i64, ptr %11, i64 %14
  %16 = load i64, ptr %15, align 8
  %17 = getelementptr inbounds i64, ptr %6, i64 %.013
  %18 = load i64, ptr %17, align 8
  %19 = add i64 %18, %13
  %20 = xor i64 %19, -1
  %21 = add i64 %16, %20
  %22 = mul nsw i64 %21, %.01112
  %exitcond.not = icmp eq i64 %14, %umax
  br i1 %exitcond.not, label %._crit_edge, label %12, !llvm.loop !12

._crit_edge:                                      ; preds = %12, %3
  %.011.lcssa = phi i64 [ %0, %3 ], [ %22, %12 ]
  ret i64 %.011.lcssa
}